target datalayout = "e-m:e-p270:32:32-p271:32:32-p272:64:64-i64:64-i128:128-f80:128-n8:16:32:64-S128"
target triple = "x86_64-pc-linux-gnu"

%"class.DFSRndNumGenerator::SearchState" = type { i8, i32, i32, i32 }

; Function Attrs: mustprogress nounwind uwtable
define dso_local void @_ZN18DFSRndNumGenerator11SearchStateC2Ei(ptr noundef nonnull align 4 dereferenceable(16) %0, i32 noundef %1) unnamed_addr #4 align 2 {
  %3 = alloca ptr, align 8
  %4 = alloca i32, align 4
  store ptr %0, ptr %3, align 8
  store i32 %1, ptr %4, align 4
  %5 = load ptr, ptr %3, align 8
  %6 = getelementptr inbounds %"class.DFSRndNumGenerator::SearchState", ptr %5, i32 0, i32 0
  store i8 0, ptr %6, align 4
  %7 = getelementptr inbounds %"class.DFSRndNumGenerator::SearchState", ptr %5, i32 0, i32 1
  store i32 0, ptr %7, align 4
  %8 = getelementptr inbounds %"class.DFSRndNumGenerator::SearchState", ptr %5, i32 0, i32 2
  store i32 0, ptr %8, align 4
  %9 = getelementptr inbounds %"class.DFSRndNumGenerator::SearchState", ptr %5, i32 0, i32 3
  %10 = load i32, ptr %4, align 4
  store i32 %10, ptr %9, align 4
  ret void
}