; Function Attrs: mustprogress nofree norecurse nosync nounwind willreturn memory(argmem: write) uwtable
define dso_local void @_ZN18DFSRndNumGenerator11SearchStateC2Ei(ptr nocapture noundef nonnull writeonly align 4 dereferenceable(16) %0, i32 noundef %1) unnamed_addr #3 align 2 {
  store i8 0, ptr %0, align 4
  %3 = getelementptr inbounds i8, ptr %0, i64 4
  store i32 0, ptr %3, align 4
  %4 = getelementptr inbounds i8, ptr %0, i64 8
  store i32 0, ptr %4, align 4
  %5 = getelementptr inbounds i8, ptr %0, i64 12
  store i32 %1, ptr %5, align 4
  ret void
}